; Function Attrs: nounwind uwtable
define ptr @l_Lean_Compiler_LCNF_normParams___rarg(i8 noundef zeroext %0, ptr noundef %1, ptr noundef %2, ptr noundef %3, ptr noundef %4) local_unnamed_addr #2 {
  %6 = zext i8 %0 to i64
  %7 = shl nuw nsw i64 %6, 1
  %8 = or disjoint i64 %7, 1
  %9 = inttoptr i64 %8 to ptr
  %10 = ptrtoint ptr %2 to i64
  %11 = and i64 %10, 1
  %.not = icmp eq i64 %11, 0
  br i1 %.not, label %12, label %lean_inc.exit

12:                                               ; preds = %5
  %.val.i = load i32, ptr %2, align 4, !tbaa !8
  %13 = icmp sgt i32 %.val.i, 0
  br i1 %13, label %14, label %16, !prof !11

14:                                               ; preds = %12
  %15 = add nuw i32 %.val.i, 1
  store i32 %15, ptr %2, align 4, !tbaa !8
  br label %lean_inc.exit

16:                                               ; preds = %12
  %.not.i = icmp eq i32 %.val.i, 0
  br i1 %.not.i, label %lean_inc.exit, label %17

17:                                               ; preds = %16
  tail call void @lean_inc_ref_cold(ptr noundef nonnull %2) #6
  br label %lean_inc.exit

lean_inc.exit:                                    ; preds = %17, %16, %14, %5
  tail call void @lean_inc_heartbeat() #6
  %18 = tail call noalias ptr @mi_malloc_small(i64 noundef 56) #6
  %19 = icmp eq ptr %18, null
  br i1 %19, label %20, label %lean_alloc_closure.exit

20:                                               ; preds = %lean_inc.exit
  tail call void @lean_internal_panic_out_of_memory() #7
  unreachable

lean_alloc_closure.exit:                          ; preds = %lean_inc.exit
  %21 = getelementptr inbounds nuw i8, ptr %18, i64 4
  store i32 1, ptr %18, align 4, !tbaa !8
  store i32 -184549320, ptr %21, align 4
  %22 = getelementptr inbounds nuw i8, ptr %18, i64 8
  store ptr @l_Lean_Compiler_LCNF_normParam___rarg___boxed, ptr %22, align 8, !tbaa !4
  %23 = getelementptr inbounds nuw i8, ptr %18, i64 16
  store i16 5, ptr %23, align 8, !tbaa !12
  %24 = getelementptr inbounds nuw i8, ptr %18, i64 18
  store i16 4, ptr %24, align 2, !tbaa !12
  %25 = getelementptr inbounds nuw i8, ptr %18, i64 24
  store ptr %9, ptr %25, align 8, !tbaa !4
  %26 = getelementptr inbounds nuw i8, ptr %18, i64 32
  store ptr %1, ptr %26, align 8, !tbaa !4
  %27 = getelementptr inbounds nuw i8, ptr %18, i64 40
  store ptr %2, ptr %27, align 8, !tbaa !4
  %28 = getelementptr inbounds nuw i8, ptr %18, i64 48
  store ptr %3, ptr %28, align 8, !tbaa !4
  tail call void @lean_inc_heartbeat() #6
  %29 = tail call noalias ptr @mi_malloc_small(i64 noundef 24) #6
  %30 = icmp eq ptr %29, null
  br i1 %30, label %31, label %l___private_Init_Data_Array_BasicAux_0__mapMonoMImp___at_Lean_Compiler_LCNF_normParams___spec__1.exit

31:                                               ; preds = %lean_alloc_closure.exit
  tail call void @lean_internal_panic_out_of_memory() #7
  unreachable

l___private_Init_Data_Array_BasicAux_0__mapMonoMImp___at_Lean_Compiler_LCNF_normParams___spec__1.exit: ; preds = %lean_alloc_closure.exit
  %32 = getelementptr inbounds nuw i8, ptr %29, i64 4
  store i32 1, ptr %29, align 4, !tbaa !8
  store i32 -184549352, ptr %32, align 4
  %33 = getelementptr inbounds nuw i8, ptr %29, i64 8
  store ptr @l___private_Init_Data_Array_BasicAux_0__mapMonoMImp___at_Lean_Compiler_LCNF_normParams___spec__1___rarg, ptr %33, align 8, !tbaa !4
  %34 = getelementptr inbounds nuw i8, ptr %29, i64 16
  store i16 3, ptr %34, align 8, !tbaa !12
  %35 = getelementptr inbounds nuw i8, ptr %29, i64 18
  store i16 0, ptr %35, align 2, !tbaa !12
  %36 = tail call ptr @lean_apply_3(ptr noundef nonnull %29, ptr noundef %2, ptr noundef %4, ptr noundef nonnull %18) #6
  ret ptr %36
}